; Function Attrs: nounwind uwtable
define internal fastcc void @freeDataArray(ptr noundef %0, ptr noundef %1, ptr noundef %2, ptr noundef %3, ptr noundef %4, ptr noundef %5, ptr noundef %6) unnamed_addr #0 {
  %.not = icmp eq ptr %2, null
  br i1 %.not, label %10, label %8

8:                                                ; preds = %7
  %9 = load ptr, ptr getelementptr inbounds (i8, ptr @sMlibSysFns, i64 16), align 8
  tail call void %9(ptr noundef nonnull %2) #13
  br label %10

10:                                               ; preds = %8, %7
  %.not17 = icmp eq ptr %3, null
  br i1 %.not17, label %15, label %11

11:                                               ; preds = %10
  %12 = load ptr, ptr %0, align 8
  %13 = getelementptr inbounds i8, ptr %12, i64 1784
  %14 = load ptr, ptr %13, align 8
  tail call void %14(ptr noundef nonnull %0, ptr noundef %1, ptr noundef nonnull %3, i32 noundef 2) #13
  br label %15

15:                                               ; preds = %11, %10
  %.not18 = icmp eq ptr %5, null
  br i1 %.not18, label %18, label %16

16:                                               ; preds = %15
  %17 = load ptr, ptr getelementptr inbounds (i8, ptr @sMlibSysFns, i64 16), align 8
  tail call void %17(ptr noundef nonnull %5) #13
  br label %18

18:                                               ; preds = %16, %15
  %.not19 = icmp eq ptr %6, null
  br i1 %.not19, label %23, label %19

19:                                               ; preds = %18
  %20 = load ptr, ptr %0, align 8
  %21 = getelementptr inbounds i8, ptr %20, i64 1784
  %22 = load ptr, ptr %21, align 8
  tail call void %22(ptr noundef nonnull %0, ptr noundef %4, ptr noundef nonnull %6, i32 noundef 0) #13
  br label %23

23:                                               ; preds = %19, %18
  ret void
}